target datalayout = "e-m:e-p270:32:32-p271:32:32-p272:64:64-i64:64-i128:128-f80:128-n8:16:32:64-S128"
target triple = "x86_64-pc-linux-gnu"

%"class.arrow::Status" = type { ptr }
%class.anon.58 = type { i64, i64 }
%"class.__gnu_cxx::__normal_iterator" = type { ptr }
%"struct.arrow::internal::MemoryRegion" = type { ptr, i64 }
%"struct.std::_Vector_base.60" = type { %"struct.std::_Vector_base<arrow::internal::MemoryRegion, std::allocator<arrow::internal::MemoryRegion>>::_Vector_impl" }
%"struct.std::_Vector_base<arrow::internal::MemoryRegion, std::allocator<arrow::internal::MemoryRegion>>::_Vector_impl" = type { %"struct.std::_Vector_base<arrow::internal::MemoryRegion, std::allocator<arrow::internal::MemoryRegion>>::_Vector_impl_data" }
%"struct.std::_Vector_base<arrow::internal::MemoryRegion, std::allocator<arrow::internal::MemoryRegion>>::_Vector_impl_data" = type { ptr, ptr, ptr }

@_ZZN5arrow8internal11GetPageSizeEvE9kPageSize = internal global i64 0, align 8
@_ZGVZN5arrow8internal11GetPageSizeEvE9kPageSize = internal global i64 0, align 8
@.str.14 = private unnamed_addr constant [21 x i8] c"posix_madvise failed\00", align 1

; Function Attrs: mustprogress nounwind uwtable
define linkonce_odr void @_ZN5arrow6StatusC2Ev(ptr noundef nonnull align 8 dereferenceable(8) %0) unnamed_addr #6 comdat align 2 {
  %2 = alloca ptr, align 8
  store ptr %0, ptr %2, align 8, !tbaa !43
  %3 = load ptr, ptr %2, align 8
  %4 = getelementptr inbounds nuw %"class.arrow::Status", ptr %3, i32 0, i32 0
  store ptr null, ptr %4, align 8, !tbaa !69
  ret void
}

; Function Attrs: mustprogress nounwind uwtable
define linkonce_odr noundef nonnull align 8 dereferenceable(8) ptr @_ZNK9__gnu_cxx17__normal_iteratorIPKN5arrow8internal12MemoryRegionESt6vectorIS3_SaIS3_EEE4baseEv(ptr noundef nonnull align 8 dereferenceable(8) %0) #6 comdat align 2 {
  %2 = alloca ptr, align 8
  store ptr %0, ptr %2, align 8, !tbaa !174
  %3 = load ptr, ptr %2, align 8
  %4 = getelementptr inbounds nuw %"class.__gnu_cxx::__normal_iterator", ptr %3, i32 0, i32 0
  ret ptr %4
}

; Function Attrs: mustprogress nounwind uwtable
define linkonce_odr void @_ZN9__gnu_cxx17__normal_iteratorIPKN5arrow8internal12MemoryRegionESt6vectorIS3_SaIS3_EEEC2ERKS5_(ptr noundef nonnull align 8 dereferenceable(8) %0, ptr noundef nonnull align 8 dereferenceable(8) %1) unnamed_addr #6 comdat align 2 {
  %3 = alloca ptr, align 8
  %4 = alloca ptr, align 8
  store ptr %0, ptr %3, align 8, !tbaa !174
  store ptr %1, ptr %4, align 8, !tbaa !699
  %5 = load ptr, ptr %3, align 8
  %6 = getelementptr inbounds nuw %"class.__gnu_cxx::__normal_iterator", ptr %5, i32 0, i32 0
  %7 = load ptr, ptr %4, align 8, !tbaa !699
  %8 = load ptr, ptr %7, align 8, !tbaa !169
  store ptr %8, ptr %6, align 8, !tbaa !176
  ret void
}

; Function Attrs: mustprogress nounwind uwtable
define linkonce_odr void @_ZN5arrow6Status2OKEv(ptr dead_on_unwind noalias writable sret(%"class.arrow::Status") align 8 %0) #6 comdat align 2 {
  %2 = alloca ptr, align 8
  store ptr %0, ptr %2, align 8
  call void @_ZN5arrow6StatusC2Ev(ptr noundef nonnull align 8 dereferenceable(8) %0) #3
  ret void
}

; Function Attrs: mustprogress nounwind uwtable
define linkonce_odr noundef nonnull align 8 dereferenceable(8) ptr @_ZN9__gnu_cxx17__normal_iteratorIPKN5arrow8internal12MemoryRegionESt6vectorIS3_SaIS3_EEEppEv(ptr noundef nonnull align 8 dereferenceable(8) %0) #6 comdat align 2 {
  %2 = alloca ptr, align 8
  store ptr %0, ptr %2, align 8, !tbaa !174
  %3 = load ptr, ptr %2, align 8
  %4 = getelementptr inbounds nuw %"class.__gnu_cxx::__normal_iterator", ptr %3, i32 0, i32 0
  %5 = load ptr, ptr %4, align 8, !tbaa !176
  %6 = getelementptr inbounds nuw %"struct.arrow::internal::MemoryRegion", ptr %5, i32 1
  store ptr %6, ptr %4, align 8, !tbaa !176
  ret ptr %3
}

; Function Attrs: mustprogress uwtable
define linkonce_odr void @_ZN5arrow8internal16IOErrorFromErrnoIJRA21_KcEEENS_6StatusEiDpOT_(ptr dead_on_unwind noalias writable sret(%"class.arrow::Status") align 8 %0, i32 noundef %1, ptr noundef nonnull align 1 dereferenceable(21) %2) #4 comdat {
  %4 = alloca ptr, align 8
  %5 = alloca i32, align 4
  %6 = alloca ptr, align 8
  store ptr %0, ptr %4, align 8
  store i32 %1, ptr %5, align 4, !tbaa !3
  store ptr %2, ptr %6, align 8, !tbaa !12
  %7 = load i32, ptr %5, align 4, !tbaa !3
  %8 = load ptr, ptr %6, align 8, !tbaa !12
  call void @_ZN5arrow8internal15StatusFromErrnoIJRA21_KcEEENS_6StatusEiNS_10StatusCodeEDpOT_(ptr dead_on_unwind writable sret(%"class.arrow::Status") align 8 %0, i32 noundef %7, i8 noundef signext 5, ptr noundef nonnull align 1 dereferenceable(21) %8)
  ret void
}

; Function Attrs: inlinehint mustprogress nounwind uwtable
define internal { ptr, i64 } @"_ZZN5arrow8internal20MemoryAdviseWillNeedERKSt6vectorINS0_12MemoryRegionESaIS2_EEENK3$_0clERKS2_"(ptr noundef nonnull align 8 dereferenceable(16) %0, ptr noundef nonnull align 8 dereferenceable(16) %1) #8 align 2 {
  %3 = alloca %"struct.arrow::internal::MemoryRegion", align 8
  %4 = alloca ptr, align 8
  %5 = alloca ptr, align 8
  %6 = alloca i64, align 8
  %7 = alloca i64, align 8
  store ptr %0, ptr %4, align 8, !tbaa !100
  store ptr %1, ptr %5, align 8, !tbaa !169
  %8 = load ptr, ptr %4, align 8
  call void @llvm.lifetime.start.p0(i64 8, ptr %6) #3
  %9 = load ptr, ptr %5, align 8, !tbaa !169
  %10 = getelementptr inbounds nuw %"struct.arrow::internal::MemoryRegion", ptr %9, i32 0, i32 0
  %11 = load ptr, ptr %10, align 8, !tbaa !173
  %12 = ptrtoint ptr %11 to i64
  store i64 %12, ptr %6, align 8, !tbaa !62
  call void @llvm.lifetime.start.p0(i64 8, ptr %7) #3
  %13 = load i64, ptr %6, align 8, !tbaa !62
  %14 = getelementptr inbounds nuw %class.anon.58, ptr %8, i32 0, i32 0
  %15 = load i64, ptr %14, align 8, !tbaa !166
  %16 = and i64 %13, %15
  store i64 %16, ptr %7, align 8, !tbaa !62
  br label %17

17:                                               ; preds = %18, %2
  br i1 false, label %18, label %19

18:                                               ; preds = %17
  br label %17, !llvm.loop !178

19:                                               ; preds = %17
  br label %20

20:                                               ; preds = %21, %19
  br i1 false, label %21, label %22

21:                                               ; preds = %20
  br label %20, !llvm.loop !179

22:                                               ; preds = %20
  br label %23

23:                                               ; preds = %24, %22
  br i1 false, label %24, label %25

24:                                               ; preds = %23
  br label %23, !llvm.loop !180

25:                                               ; preds = %23
  %26 = getelementptr inbounds nuw %"struct.arrow::internal::MemoryRegion", ptr %3, i32 0, i32 0
  %27 = load i64, ptr %7, align 8, !tbaa !62
  %28 = inttoptr i64 %27 to ptr
  store ptr %28, ptr %26, align 8, !tbaa !173
  %29 = getelementptr inbounds nuw %"struct.arrow::internal::MemoryRegion", ptr %3, i32 0, i32 1
  %30 = load ptr, ptr %5, align 8, !tbaa !169
  %31 = getelementptr inbounds nuw %"struct.arrow::internal::MemoryRegion", ptr %30, i32 0, i32 1
  %32 = load i64, ptr %31, align 8, !tbaa !171
  %33 = load i64, ptr %6, align 8, !tbaa !62
  %34 = load i64, ptr %7, align 8, !tbaa !62
  %35 = sub i64 %33, %34
  %36 = add i64 %32, %35
  store i64 %36, ptr %29, align 8, !tbaa !171
  call void @llvm.lifetime.end.p0(i64 8, ptr %7) #3
  call void @llvm.lifetime.end.p0(i64 8, ptr %6) #3
  %37 = load { ptr, i64 }, ptr %3, align 8
  ret { ptr, i64 } %37
}

; Function Attrs: mustprogress nounwind uwtable
define linkonce_odr noundef nonnull align 8 dereferenceable(16) ptr @_ZNK9__gnu_cxx17__normal_iteratorIPKN5arrow8internal12MemoryRegionESt6vectorIS3_SaIS3_EEEdeEv(ptr noundef nonnull align 8 dereferenceable(8) %0) #6 comdat align 2 {
  %2 = alloca ptr, align 8
  store ptr %0, ptr %2, align 8, !tbaa !174
  %3 = load ptr, ptr %2, align 8
  %4 = getelementptr inbounds nuw %"class.__gnu_cxx::__normal_iterator", ptr %3, i32 0, i32 0
  %5 = load ptr, ptr %4, align 8, !tbaa !176
  ret ptr %5
}

; Function Attrs: inlinehint mustprogress nounwind uwtable
define linkonce_odr noundef zeroext i1 @_ZN9__gnu_cxxneIPKN5arrow8internal12MemoryRegionESt6vectorIS3_SaIS3_EEEEbRKNS_17__normal_iteratorIT_T0_EESE_(ptr noundef nonnull align 8 dereferenceable(8) %0, ptr noundef nonnull align 8 dereferenceable(8) %1) #8 comdat {
  %3 = alloca ptr, align 8
  %4 = alloca ptr, align 8
  store ptr %0, ptr %3, align 8, !tbaa !174
  store ptr %1, ptr %4, align 8, !tbaa !174
  %5 = load ptr, ptr %3, align 8, !tbaa !174
  %6 = call noundef nonnull align 8 dereferenceable(8) ptr @_ZNK9__gnu_cxx17__normal_iteratorIPKN5arrow8internal12MemoryRegionESt6vectorIS3_SaIS3_EEE4baseEv(ptr noundef nonnull align 8 dereferenceable(8) %5) #3
  %7 = load ptr, ptr %6, align 8, !tbaa !169
  %8 = load ptr, ptr %4, align 8, !tbaa !174
  %9 = call noundef nonnull align 8 dereferenceable(8) ptr @_ZNK9__gnu_cxx17__normal_iteratorIPKN5arrow8internal12MemoryRegionESt6vectorIS3_SaIS3_EEE4baseEv(ptr noundef nonnull align 8 dereferenceable(8) %8) #3
  %10 = load ptr, ptr %9, align 8, !tbaa !169
  %11 = icmp ne ptr %7, %10
  ret i1 %11
}

; Function Attrs: mustprogress nounwind uwtable
define linkonce_odr ptr @_ZNKSt6vectorIN5arrow8internal12MemoryRegionESaIS2_EE3endEv(ptr noundef nonnull align 8 dereferenceable(24) %0) #6 comdat align 2 {
  %2 = alloca %"class.__gnu_cxx::__normal_iterator", align 8
  %3 = alloca ptr, align 8
  store ptr %0, ptr %3, align 8, !tbaa !158
  %4 = load ptr, ptr %3, align 8
  %5 = getelementptr inbounds nuw %"struct.std::_Vector_base.60", ptr %4, i32 0, i32 0
  %6 = getelementptr inbounds nuw %"struct.std::_Vector_base<arrow::internal::MemoryRegion, std::allocator<arrow::internal::MemoryRegion>>::_Vector_impl_data", ptr %5, i32 0, i32 1
  call void @_ZN9__gnu_cxx17__normal_iteratorIPKN5arrow8internal12MemoryRegionESt6vectorIS3_SaIS3_EEEC2ERKS5_(ptr noundef nonnull align 8 dereferenceable(8) %2, ptr noundef nonnull align 8 dereferenceable(8) %6) #3
  %7 = getelementptr inbounds nuw %"class.__gnu_cxx::__normal_iterator", ptr %2, i32 0, i32 0
  %8 = load ptr, ptr %7, align 8
  ret ptr %8
}

; Function Attrs: mustprogress nounwind uwtable
define linkonce_odr ptr @_ZNKSt6vectorIN5arrow8internal12MemoryRegionESaIS2_EE5beginEv(ptr noundef nonnull align 8 dereferenceable(24) %0) #6 comdat align 2 {
  %2 = alloca %"class.__gnu_cxx::__normal_iterator", align 8
  %3 = alloca ptr, align 8
  store ptr %0, ptr %3, align 8, !tbaa !158
  %4 = load ptr, ptr %3, align 8
  %5 = getelementptr inbounds nuw %"struct.std::_Vector_base.60", ptr %4, i32 0, i32 0
  %6 = getelementptr inbounds nuw %"struct.std::_Vector_base<arrow::internal::MemoryRegion, std::allocator<arrow::internal::MemoryRegion>>::_Vector_impl_data", ptr %5, i32 0, i32 0
  call void @_ZN9__gnu_cxx17__normal_iteratorIPKN5arrow8internal12MemoryRegionESt6vectorIS3_SaIS3_EEEC2ERKS5_(ptr noundef nonnull align 8 dereferenceable(8) %2, ptr noundef nonnull align 8 dereferenceable(8) %6) #3
  %7 = getelementptr inbounds nuw %"class.__gnu_cxx::__normal_iterator", ptr %2, i32 0, i32 0
  %8 = load ptr, ptr %7, align 8
  ret ptr %8
}

; Function Attrs: mustprogress uwtable
define noundef i64 @_ZN5arrow8internal11GetPageSizeEv() #4 personality ptr @__gxx_personality_v0 {
  %1 = alloca ptr, align 8
  %2 = alloca i32, align 4
  %3 = load atomic i8, ptr @_ZGVZN5arrow8internal11GetPageSizeEvE9kPageSize acquire, align 8
  %4 = icmp eq i8 %3, 0
  br i1 %4, label %5, label %12, !prof !157

5:                                                ; preds = %0
  %6 = call i32 @__cxa_guard_acquire(ptr @_ZGVZN5arrow8internal11GetPageSizeEvE9kPageSize) #3
  %7 = icmp ne i32 %6, 0
  br i1 %7, label %8, label %12

8:                                                ; preds = %5
  %9 = invoke noundef i64 @_ZN5arrow8internal12_GLOBAL__N_119GetPageSizeInternalEv()
          to label %10 unwind label %14

10:                                               ; preds = %8
  store i64 %9, ptr @_ZZN5arrow8internal11GetPageSizeEvE9kPageSize, align 8, !tbaa !62
  %11 = call ptr @llvm.invariant.start.p0(i64 8, ptr @_ZZN5arrow8internal11GetPageSizeEvE9kPageSize)
  call void @__cxa_guard_release(ptr @_ZGVZN5arrow8internal11GetPageSizeEvE9kPageSize) #3
  br label %12

12:                                               ; preds = %10, %5, %0
  %13 = load i64, ptr @_ZZN5arrow8internal11GetPageSizeEvE9kPageSize, align 8, !tbaa !62
  ret i64 %13

14:                                               ; preds = %8
  %15 = landingpad { ptr, i32 }
          cleanup
  %16 = extractvalue { ptr, i32 } %15, 0
  store ptr %16, ptr %1, align 8
  %17 = extractvalue { ptr, i32 } %15, 1
  store i32 %17, ptr %2, align 4
  call void @__cxa_guard_abort(ptr @_ZGVZN5arrow8internal11GetPageSizeEvE9kPageSize) #3
  br label %18

18:                                               ; preds = %14
  %19 = load ptr, ptr %1, align 8
  %20 = load i32, ptr %2, align 4
  %21 = insertvalue { ptr, i32 } poison, ptr %19, 0
  %22 = insertvalue { ptr, i32 } %21, i32 %20, 1
  resume { ptr, i32 } %22
}

; Function Attrs: mustprogress uwtable
define void @_ZN5arrow8internal20MemoryAdviseWillNeedERKSt6vectorINS0_12MemoryRegionESaIS2_EE(ptr dead_on_unwind noalias writable sret(%"class.arrow::Status") align 8 %0, ptr noundef nonnull align 8 dereferenceable(24) %1) #4 {
  %3 = alloca ptr, align 8
  %4 = alloca ptr, align 8
  %5 = alloca i64, align 8
  %6 = alloca i64, align 8
  %7 = alloca %class.anon.58, align 8
  %8 = alloca ptr, align 8
  %9 = alloca %"class.__gnu_cxx::__normal_iterator", align 8
  %10 = alloca %"class.__gnu_cxx::__normal_iterator", align 8
  %11 = alloca i32, align 4
  %12 = alloca ptr, align 8
  %13 = alloca %"struct.arrow::internal::MemoryRegion", align 8
  %14 = alloca i32, align 4
  store ptr %0, ptr %3, align 8
  store ptr %1, ptr %4, align 8, !tbaa !158
  call void @llvm.lifetime.start.p0(i64 8, ptr %5) #3
  %15 = call noundef i64 @_ZN5arrow8internal11GetPageSizeEv()
  store i64 %15, ptr %5, align 8, !tbaa !62
  br label %16

16:                                               ; preds = %17, %2
  br i1 false, label %17, label %18

17:                                               ; preds = %16
  br label %16, !llvm.loop !160

18:                                               ; preds = %16
  br label %19

19:                                               ; preds = %20, %18
  br i1 false, label %20, label %21

20:                                               ; preds = %19
  br label %19, !llvm.loop !161

21:                                               ; preds = %19
  br label %22

22:                                               ; preds = %23, %21
  br i1 false, label %23, label %24

23:                                               ; preds = %22
  br label %22, !llvm.loop !162

24:                                               ; preds = %22
  call void @llvm.lifetime.start.p0(i64 8, ptr %6) #3
  %25 = load i64, ptr %5, align 8, !tbaa !62
  %26 = sub i64 %25, 1
  %27 = xor i64 %26, -1
  store i64 %27, ptr %6, align 8, !tbaa !62
  br label %28

28:                                               ; preds = %29, %24
  br i1 false, label %29, label %30

29:                                               ; preds = %28
  br label %28, !llvm.loop !163

30:                                               ; preds = %28
  br label %31

31:                                               ; preds = %32, %30
  br i1 false, label %32, label %33

32:                                               ; preds = %31
  br label %31, !llvm.loop !164

33:                                               ; preds = %31
  br label %34

34:                                               ; preds = %35, %33
  br i1 false, label %35, label %36

35:                                               ; preds = %34
  br label %34, !llvm.loop !165

36:                                               ; preds = %34
  call void @llvm.lifetime.start.p0(i64 16, ptr %7) #3
  %37 = getelementptr inbounds nuw %class.anon.58, ptr %7, i32 0, i32 0
  %38 = load i64, ptr %6, align 8, !tbaa !62
  store i64 %38, ptr %37, align 8, !tbaa !166
  %39 = getelementptr inbounds nuw %class.anon.58, ptr %7, i32 0, i32 1
  %40 = load i64, ptr %5, align 8, !tbaa !62
  store i64 %40, ptr %39, align 8, !tbaa !168
  call void @llvm.lifetime.start.p0(i64 8, ptr %8) #3
  %41 = load ptr, ptr %4, align 8, !tbaa !158
  store ptr %41, ptr %8, align 8, !tbaa !158
  call void @llvm.lifetime.start.p0(i64 8, ptr %9) #3
  %42 = load ptr, ptr %8, align 8, !tbaa !158
  %43 = call ptr @_ZNKSt6vectorIN5arrow8internal12MemoryRegionESaIS2_EE5beginEv(ptr noundef nonnull align 8 dereferenceable(24) %42) #3
  %44 = getelementptr inbounds nuw %"class.__gnu_cxx::__normal_iterator", ptr %9, i32 0, i32 0
  store ptr %43, ptr %44, align 8
  call void @llvm.lifetime.start.p0(i64 8, ptr %10) #3
  %45 = load ptr, ptr %8, align 8, !tbaa !158
  %46 = call ptr @_ZNKSt6vectorIN5arrow8internal12MemoryRegionESaIS2_EE3endEv(ptr noundef nonnull align 8 dereferenceable(24) %45) #3
  %47 = getelementptr inbounds nuw %"class.__gnu_cxx::__normal_iterator", ptr %10, i32 0, i32 0
  store ptr %46, ptr %47, align 8
  br label %48

48:                                               ; preds = %84, %36
  %49 = call noundef zeroext i1 @_ZN9__gnu_cxxneIPKN5arrow8internal12MemoryRegionESt6vectorIS3_SaIS3_EEEEbRKNS_17__normal_iteratorIT_T0_EESE_(ptr noundef nonnull align 8 dereferenceable(8) %9, ptr noundef nonnull align 8 dereferenceable(8) %10) #3
  br i1 %49, label %51, label %50

50:                                               ; preds = %48
  store i32 14, ptr %11, align 4
  br label %86

51:                                               ; preds = %48
  call void @llvm.lifetime.start.p0(i64 8, ptr %12) #3
  %52 = call noundef nonnull align 8 dereferenceable(16) ptr @_ZNK9__gnu_cxx17__normal_iteratorIPKN5arrow8internal12MemoryRegionESt6vectorIS3_SaIS3_EEEdeEv(ptr noundef nonnull align 8 dereferenceable(8) %9) #3
  store ptr %52, ptr %12, align 8, !tbaa !169
  %53 = load ptr, ptr %12, align 8, !tbaa !169
  %54 = getelementptr inbounds nuw %"struct.arrow::internal::MemoryRegion", ptr %53, i32 0, i32 1
  %55 = load i64, ptr %54, align 8, !tbaa !171
  %56 = icmp ne i64 %55, 0
  br i1 %56, label %57, label %80

57:                                               ; preds = %51
  call void @llvm.lifetime.start.p0(i64 16, ptr %13) #3
  %58 = load ptr, ptr %12, align 8, !tbaa !169
  %59 = call { ptr, i64 } @"_ZZN5arrow8internal20MemoryAdviseWillNeedERKSt6vectorINS0_12MemoryRegionESaIS2_EEENK3$_0clERKS2_"(ptr noundef nonnull align 8 dereferenceable(16) %7, ptr noundef nonnull align 8 dereferenceable(16) %58)
  %60 = getelementptr inbounds nuw { ptr, i64 }, ptr %13, i32 0, i32 0
  %61 = extractvalue { ptr, i64 } %59, 0
  store ptr %61, ptr %60, align 8
  %62 = getelementptr inbounds nuw { ptr, i64 }, ptr %13, i32 0, i32 1
  %63 = extractvalue { ptr, i64 } %59, 1
  store i64 %63, ptr %62, align 8
  call void @llvm.lifetime.start.p0(i64 4, ptr %14) #3
  %64 = getelementptr inbounds nuw %"struct.arrow::internal::MemoryRegion", ptr %13, i32 0, i32 0
  %65 = load ptr, ptr %64, align 8, !tbaa !173
  %66 = getelementptr inbounds nuw %"struct.arrow::internal::MemoryRegion", ptr %13, i32 0, i32 1
  %67 = load i64, ptr %66, align 8, !tbaa !171
  %68 = call i32 @posix_madvise(ptr noundef %65, i64 noundef %67, i32 noundef 3) #3
  store i32 %68, ptr %14, align 4, !tbaa !3
  %69 = load i32, ptr %14, align 4, !tbaa !3
  %70 = icmp ne i32 %69, 0
  br i1 %70, label %71, label %76

71:                                               ; preds = %57
  %72 = load i32, ptr %14, align 4, !tbaa !3
  %73 = icmp ne i32 %72, 9
  br i1 %73, label %74, label %76

74:                                               ; preds = %71
  %75 = load i32, ptr %14, align 4, !tbaa !3
  call void @_ZN5arrow8internal16IOErrorFromErrnoIJRA21_KcEEENS_6StatusEiDpOT_(ptr dead_on_unwind writable sret(%"class.arrow::Status") align 8 %0, i32 noundef %75, ptr noundef nonnull align 1 dereferenceable(21) @.str.14)
  store i32 1, ptr %11, align 4
  br label %77

76:                                               ; preds = %71, %57
  store i32 0, ptr %11, align 4
  br label %77

77:                                               ; preds = %76, %74
  call void @llvm.lifetime.end.p0(i64 4, ptr %14) #3
  call void @llvm.lifetime.end.p0(i64 16, ptr %13) #3
  %78 = load i32, ptr %11, align 4
  switch i32 %78, label %81 [
    i32 0, label %79
  ]

79:                                               ; preds = %77
  br label %80

80:                                               ; preds = %79, %51
  store i32 0, ptr %11, align 4
  br label %81

81:                                               ; preds = %80, %77
  call void @llvm.lifetime.end.p0(i64 8, ptr %12) #3
  %82 = load i32, ptr %11, align 4
  switch i32 %82, label %86 [
    i32 0, label %83
  ]

83:                                               ; preds = %81
  br label %84

84:                                               ; preds = %83
  %85 = call noundef nonnull align 8 dereferenceable(8) ptr @_ZN9__gnu_cxx17__normal_iteratorIPKN5arrow8internal12MemoryRegionESt6vectorIS3_SaIS3_EEEppEv(ptr noundef nonnull align 8 dereferenceable(8) %9) #3
  br label %48

86:                                               ; preds = %81, %50
  call void @llvm.lifetime.end.p0(i64 8, ptr %10) #3
  call void @llvm.lifetime.end.p0(i64 8, ptr %9) #3
  call void @llvm.lifetime.end.p0(i64 8, ptr %8) #3
  %87 = load i32, ptr %11, align 4
  switch i32 %87, label %89 [
    i32 14, label %88
  ]

88:                                               ; preds = %86
  call void @_ZN5arrow6Status2OKEv(ptr dead_on_unwind writable sret(%"class.arrow::Status") align 8 %0)
  store i32 1, ptr %11, align 4
  br label %89

89:                                               ; preds = %88, %86
  call void @llvm.lifetime.end.p0(i64 16, ptr %7) #3
  call void @llvm.lifetime.end.p0(i64 8, ptr %6) #3
  call void @llvm.lifetime.end.p0(i64 8, ptr %5) #3
  ret void
}