; Function Attrs: mustprogress uwtable
define void @_ZN5arrow8internal20MemoryAdviseWillNeedERKSt6vectorINS0_12MemoryRegionESaIS2_EE(ptr dead_on_unwind noalias writable sret(%"class.arrow::Status") align 8 %0, ptr noundef nonnull readonly align 8 captures(none) dereferenceable(24) %1) local_unnamed_addr #3 personality ptr @__gxx_personality_v0 {
  %3 = load atomic i8, ptr @_ZGVZN5arrow8internal11GetPageSizeEvE9kPageSize acquire, align 8
  %4 = icmp eq i8 %3, 0
  br i1 %4, label %5, label %_ZN5arrow8internal11GetPageSizeEv.exit, !prof !455

5:                                                ; preds = %2
  %6 = tail call i32 @__cxa_guard_acquire(ptr nonnull @_ZGVZN5arrow8internal11GetPageSizeEvE9kPageSize) #38
  %.not.i = icmp eq i32 %6, 0
  br i1 %.not.i, label %_ZN5arrow8internal11GetPageSizeEv.exit, label %7

7:                                                ; preds = %5
  %8 = invoke fastcc noundef i64 @_ZN5arrow8internal12_GLOBAL__N_119GetPageSizeInternalEv()
          to label %9 unwind label %11

9:                                                ; preds = %7
  store i64 %8, ptr @_ZZN5arrow8internal11GetPageSizeEvE9kPageSize, align 8, !tbaa !9
  %10 = tail call ptr @llvm.invariant.start.p0(i64 8, ptr nonnull @_ZZN5arrow8internal11GetPageSizeEvE9kPageSize)
  tail call void @__cxa_guard_release(ptr nonnull @_ZGVZN5arrow8internal11GetPageSizeEvE9kPageSize) #38
  br label %_ZN5arrow8internal11GetPageSizeEv.exit

11:                                               ; preds = %7
  %12 = landingpad { ptr, i32 }
          cleanup
  tail call void @__cxa_guard_abort(ptr nonnull @_ZGVZN5arrow8internal11GetPageSizeEvE9kPageSize) #38
  resume { ptr, i32 } %12

_ZN5arrow8internal11GetPageSizeEv.exit:           ; preds = %2, %5, %9
  %13 = load i64, ptr @_ZZN5arrow8internal11GetPageSizeEvE9kPageSize, align 8, !tbaa !9
  %14 = sub i64 0, %13
  %15 = load ptr, ptr %1, align 8, !tbaa !470
  %16 = getelementptr inbounds nuw i8, ptr %1, i64 8
  %17 = load ptr, ptr %16, align 8, !tbaa !470
  %.not2728 = icmp eq ptr %15, %17
  br i1 %.not2728, label %.critedge20, label %.lr.ph

.lr.ph:                                           ; preds = %_ZN5arrow8internal11GetPageSizeEv.exit, %.critedge
  %.sroa.023.029 = phi ptr [ %28, %.critedge ], [ %15, %_ZN5arrow8internal11GetPageSizeEv.exit ]
  %18 = getelementptr inbounds nuw i8, ptr %.sroa.023.029, i64 8
  %19 = load i64, ptr %18, align 8, !tbaa !472
  %.not = icmp eq i64 %19, 0
  br i1 %.not, label %.critedge, label %20

20:                                               ; preds = %.lr.ph
  %.val21 = load ptr, ptr %.sroa.023.029, align 8, !tbaa !474
  %21 = ptrtoint ptr %.val21 to i64
  %22 = and i64 %21, %14
  %23 = inttoptr i64 %22 to ptr
  %24 = add i64 %19, %21
  %25 = sub i64 %24, %22
  %26 = tail call i32 @posix_madvise(ptr noundef %23, i64 noundef %25, i32 noundef 3) #38
  switch i32 %26, label %27 [
    i32 9, label %.critedge
    i32 0, label %.critedge
  ]

27:                                               ; preds = %20
  tail call void @_ZN5arrow8internal15StatusFromErrnoIJRA21_KcEEENS_6StatusEiNS_10StatusCodeEDpOT_(ptr dead_on_unwind writable sret(%"class.arrow::Status") align 8 %0, i32 noundef %26, i8 noundef signext 5, ptr noundef nonnull align 1 dereferenceable(21) @.str.14)
  br label %29

.critedge:                                        ; preds = %20, %20, %.lr.ph
  %28 = getelementptr inbounds nuw i8, ptr %.sroa.023.029, i64 16
  %.not27 = icmp eq ptr %28, %17
  br i1 %.not27, label %.critedge20, label %.lr.ph

.critedge20:                                      ; preds = %.critedge, %_ZN5arrow8internal11GetPageSizeEv.exit
  store ptr null, ptr %0, align 8, !tbaa !89, !alias.scope !475
  br label %29

29:                                               ; preds = %27, %.critedge20
  ret void
}